target datalayout = "e-m:e-p270:32:32-p271:32:32-p272:64:64-i64:64-i128:128-f80:128-n8:16:32:64-S128"
target triple = "x86_64-unknown-linux-gnu"

; Function Attrs: mustprogress nounwind uwtable
define internal noundef signext i8 @_ZL9U_SUCCESS10UErrorCode(i32 noundef %code) #0 {
entry:
  %code.addr = alloca i32, align 4
  store i32 %code, ptr %code.addr, align 4
  %0 = load i32, ptr %code.addr, align 4
  %cmp = icmp sle i32 %0, 0
  %conv = zext i1 %cmp to i8
  ret i8 %conv
}

; Function Attrs: mustprogress uwtable
define void @ures_openDirectFillIn_75(ptr noundef %r, ptr noundef %path, ptr noundef %localeID, ptr noundef %status) #1 {
entry:
  %r.addr = alloca ptr, align 8
  %path.addr = alloca ptr, align 8
  %localeID.addr = alloca ptr, align 8
  %status.addr = alloca ptr, align 8
  store ptr %r, ptr %r.addr, align 8
  store ptr %path, ptr %path.addr, align 8
  store ptr %localeID, ptr %localeID.addr, align 8
  store ptr %status, ptr %status.addr, align 8
  %0 = load ptr, ptr %status.addr, align 8
  %1 = load i32, ptr %0, align 4
  %call = call noundef signext i8 @_ZL9U_SUCCESS10UErrorCode(i32 noundef %1)
  %tobool = icmp ne i8 %call, 0
  br i1 %tobool, label %land.lhs.true, label %if.end

land.lhs.true:                                    ; preds = %entry
  %2 = load ptr, ptr %r.addr, align 8
  %cmp = icmp eq ptr %2, null
  br i1 %cmp, label %if.then, label %if.end

if.then:                                          ; preds = %land.lhs.true
  %3 = load ptr, ptr %status.addr, align 8
  store i32 1, ptr %3, align 4
  br label %return

if.end:                                           ; preds = %land.lhs.true, %entry
  %4 = load ptr, ptr %r.addr, align 8
  %5 = load ptr, ptr %path.addr, align 8
  %6 = load ptr, ptr %localeID.addr, align 8
  %7 = load ptr, ptr %status.addr, align 8
  %call1 = call noundef ptr @_ZL17ures_openWithTypeP15UResourceBundlePKcS2_12UResOpenTypeP10UErrorCode(ptr noundef %4, ptr noundef %5, ptr noundef %6, i32 noundef 2, ptr noundef %7)
  br label %return

return:                                           ; preds = %if.end, %if.then
  ret void
}