; Function Attrs: mustprogress uwtable
define void @ures_openDirectFillIn_75(ptr noundef %r, ptr noundef %path, ptr noundef %localeID, ptr noundef %status) local_unnamed_addr #1 {
entry:
  %0 = load i32, ptr %status, align 4
  %cmp.i = icmp slt i32 %0, 1
  %cmp = icmp eq ptr %r, null
  %or.cond = and i1 %cmp, %cmp.i
  br i1 %or.cond, label %if.then, label %if.end

if.then:                                          ; preds = %entry
  store i32 1, ptr %status, align 4
  br label %return

if.end:                                           ; preds = %entry
  %call1 = tail call fastcc noundef ptr @_ZL17ures_openWithTypeP15UResourceBundlePKcS2_12UResOpenTypeP10UErrorCode(ptr noundef %r, ptr noundef %path, ptr noundef %localeID, i32 noundef 2, ptr noundef nonnull %status)
  br label %return

return:                                           ; preds = %if.end, %if.then
  ret void
}